(dp1
I0
VO
sI1
VI-ARG1
p2
sI2
VI-ARG0
p3
sI3
Vrel
p4
sI4
VB-ARG1
p5
sI5
VB-ARG0
p6
sI6
VB-ARGM-ADV
p7
sI7
VI-ARGM-TMP
p8
sI8
VI-ARGM-LOC
p9
sI9
VI-ARG2
p10
sI10
VI-ARGM-ADV
p11
sI11
VI-ARGM-MNR
p12
sI12
VB-ARGM-TMP
p13
sI13
VI-ARGM-PRP
p14
sI14
VB-ARGM-LOC
p15
sI15
VB-ARG2
p16
sI16
VI-ARG3
p17
sI17
VB-ARGM-MNR
p18
sI18
VI-ARGM-CND
p19
sI19
VI-ARGM-DIR
p20
sI20
VI-ARGM-TPC
p21
sI21
VI-ARGM-BNF
p22
sI22
VB-ARGM-PRP
p23
sI23
VB-ARGM-DIS
p24
sI24
VB-ARG3
p25
sI25
VB-ARGM-DIR
p26
sI26
VI-ARGM-EXT
p27
sI27
VB-ARGM-EXT
p28
sI28
VB-ARGM-CND
p29
sI29
VB-ARGM-TPC
p30
sI30
VB-ARGM-BNF
p31
sI31
VI-ARG4
p32
sI32
VB-ARG4
p33
sI33
VI-ARGM-DIS
p34
sI34
VI-ARGM-FRQ
p35
sI35
VB-ARGM-FRQ
p36
s.