(dp1
VB-ARGM-TMP
p2
I12
sVB-ARGM-TPC
p3
I29
sVI-ARGM-MNR
p4
I11
sVI-ARG4
p5
I31
sVI-ARG0
p6
I2
sVI-ARG1
p7
I1
sVI-ARG2
p8
I9
sVI-ARG3
p9
I16
sVI-ARGM-PRP
p10
I13
sVB-ARG4
p11
I32
sVB-ARG1
p12
I4
sVB-ARG0
p13
I5
sVB-ARG3
p14
I24
sVB-ARG2
p15
I15
sVI-ARGM-ADV
p16
I10
sVI-ARGM-TPC
p17
I20
sVI-ARGM-BNF
p18
I21
sVrel
p19
I3
sVI-ARGM-CND
p20
I18
sVB-ARGM-PRP
p21
I22
sVI-ARGM-DIS
p22
I33
sVO
I0
sVB-ARGM-ADV
p23
I6
sVB-ARGM-CND
p24
I28
sVI-ARGM-FRQ
p25
I34
sVB-ARGM-DIR
p26
I25
sVB-ARGM-DIS
p27
I23
sVI-ARGM-LOC
p28
I8
sVI-ARGM-TMP
p29
I7
sVB-ARGM-FRQ
p30
I35
sVB-ARGM-EXT
p31
I27
sVI-ARGM-DIR
p32
I19
sVB-ARGM-MNR
p33
I17
sVI-ARGM-EXT
p34
I26
sVB-ARGM-BNF
p35
I30
sVB-ARGM-LOC
p36
I14
s.